; Function Attrs: mustprogress uwtable
define void @_ZNK5arrow2io22CompressedOutputStream4TellEv(ptr noalias nocapture writeonly sret(%"class.arrow::Result.13") align 8 %agg.result, ptr nocapture noundef nonnull readonly align 8 dereferenceable(16) %this) unnamed_addr #0 align 2 personality ptr @__gxx_personality_v0 {
entry:
  %impl_ = getelementptr inbounds i8, ptr %this, i64 8
  %0 = load ptr, ptr %impl_, align 8
  tail call void @llvm.experimental.noalias.scope.decl(metadata !47)
  %lock_.i = getelementptr inbounds i8, ptr %0, i64 80
  %call1.i.i.i.i = tail call noundef i32 @pthread_mutex_lock(ptr noundef nonnull %lock_.i) #21, !noalias !47
  %tobool.not.i.i.i = icmp eq i32 %call1.i.i.i.i, 0
  br i1 %tobool.not.i.i.i, label %_ZNK5arrow2io22CompressedOutputStream4Impl4TellEv.exit, label %if.then.i.i.i

if.then.i.i.i:                                    ; preds = %entry
  tail call void @_ZSt20__throw_system_errori(i32 noundef %call1.i.i.i.i) #24, !noalias !47
  unreachable

_ZNK5arrow2io22CompressedOutputStream4Impl4TellEv.exit: ; preds = %entry
  %total_pos_.i = getelementptr inbounds i8, ptr %0, i64 72
  store ptr null, ptr %agg.result, align 8, !alias.scope !47
  %storage_.i.i.i = getelementptr inbounds i8, ptr %agg.result, i64 8
  %1 = load i64, ptr %total_pos_.i, align 8, !noalias !47
  store i64 %1, ptr %storage_.i.i.i, align 8, !alias.scope !47
  %call1.i.i.i1.i = tail call noundef i32 @pthread_mutex_unlock(ptr noundef nonnull %lock_.i) #21, !noalias !47
  ret void
}